target datalayout = "e-m:e-p270:32:32-p271:32:32-p272:64:64-i64:64-i128:128-f80:128-n8:16:32:64-S128"
target triple = "x86_64-pc-linux-gnu"

%struct.JsonbContainer = type { i32, [0 x i32] }
%struct.JsonbValue = type { i32, %union.anon }
%union.anon = type { %struct.anon.2 }
%struct.anon.2 = type { i32, ptr, i8 }

; Function Attrs: nounwind uwtable
define dso_local zeroext i1 @JsonbExtractScalar(ptr noundef %0, ptr noundef %1) #0 {
  %3 = alloca i1, align 1
  %4 = alloca ptr, align 8
  %5 = alloca ptr, align 8
  %6 = alloca ptr, align 8
  %7 = alloca i32, align 4
  %8 = alloca %struct.JsonbValue, align 8
  %9 = alloca i32, align 4
  store ptr %0, ptr %4, align 8
  store ptr %1, ptr %5, align 8
  call void @llvm.lifetime.start.p0(i64 8, ptr %6) #8
  call void @llvm.lifetime.start.p0(i64 4, ptr %7) #8
  call void @llvm.lifetime.start.p0(i64 32, ptr %8) #8
  %10 = load ptr, ptr %4, align 8
  %11 = getelementptr inbounds nuw %struct.JsonbContainer, ptr %10, i32 0, i32 0
  %12 = load i32, ptr %11, align 4
  %13 = and i32 %12, 1073741824
  %14 = icmp ne i32 %13, 0
  br i1 %14, label %15, label %21

15:                                               ; preds = %2
  %16 = load ptr, ptr %4, align 8
  %17 = getelementptr inbounds nuw %struct.JsonbContainer, ptr %16, i32 0, i32 0
  %18 = load i32, ptr %17, align 4
  %19 = and i32 %18, 268435456
  %20 = icmp ne i32 %19, 0
  br i1 %20, label %30, label %21

21:                                               ; preds = %15, %2
  %22 = load ptr, ptr %4, align 8
  %23 = getelementptr inbounds nuw %struct.JsonbContainer, ptr %22, i32 0, i32 0
  %24 = load i32, ptr %23, align 4
  %25 = and i32 %24, 1073741824
  %26 = icmp ne i32 %25, 0
  %27 = select i1 %26, i32 16, i32 17
  %28 = load ptr, ptr %5, align 8
  %29 = getelementptr inbounds nuw %struct.JsonbValue, ptr %28, i32 0, i32 0
  store i32 %27, ptr %29, align 8
  store i1 false, ptr %3, align 1
  store i32 1, ptr %9, align 4
  br label %38

30:                                               ; preds = %15
  %31 = load ptr, ptr %4, align 8
  %32 = call ptr @JsonbIteratorInit(ptr noundef %31)
  store ptr %32, ptr %6, align 8
  %33 = call i32 @JsonbIteratorNext(ptr noundef %6, ptr noundef %8, i1 noundef zeroext true)
  store i32 %33, ptr %7, align 4
  %34 = load ptr, ptr %5, align 8
  %35 = call i32 @JsonbIteratorNext(ptr noundef %6, ptr noundef %34, i1 noundef zeroext true)
  store i32 %35, ptr %7, align 4
  %36 = call i32 @JsonbIteratorNext(ptr noundef %6, ptr noundef %8, i1 noundef zeroext true)
  store i32 %36, ptr %7, align 4
  %37 = call i32 @JsonbIteratorNext(ptr noundef %6, ptr noundef %8, i1 noundef zeroext true)
  store i32 %37, ptr %7, align 4
  store i1 true, ptr %3, align 1
  store i32 1, ptr %9, align 4
  br label %38

38:                                               ; preds = %30, %21
  call void @llvm.lifetime.end.p0(i64 32, ptr %8) #8
  call void @llvm.lifetime.end.p0(i64 4, ptr %7) #8
  call void @llvm.lifetime.end.p0(i64 8, ptr %6) #8
  %39 = load i1, ptr %3, align 1
  ret i1 %39
}