; Function Attrs: nounwind uwtable
define dso_local noundef zeroext i1 @JsonbExtractScalar(ptr noundef %0, ptr noundef %1) local_unnamed_addr #0 {
  %3 = alloca ptr, align 8
  %4 = alloca %struct.JsonbValue, align 8
  call void @llvm.lifetime.start.p0(i64 8, ptr nonnull %3) #11
  call void @llvm.lifetime.start.p0(i64 32, ptr nonnull %4) #11
  %5 = load i32, ptr %0, align 4
  %6 = and i32 %5, 1342177280
  %or.cond.not = icmp eq i32 %6, 1342177280
  br i1 %or.cond.not, label %10, label %7

7:                                                ; preds = %2
  %8 = and i32 %5, 1073741824
  %.not = icmp eq i32 %8, 0
  %9 = select i1 %.not, i32 17, i32 16
  store i32 %9, ptr %1, align 8
  br label %16

10:                                               ; preds = %2
  %11 = tail call ptr @JsonbIteratorInit(ptr noundef nonnull %0) #11
  store ptr %11, ptr %3, align 8
  %12 = call i32 @JsonbIteratorNext(ptr noundef nonnull %3, ptr noundef nonnull %4, i1 noundef zeroext true) #11
  %13 = call i32 @JsonbIteratorNext(ptr noundef nonnull %3, ptr noundef %1, i1 noundef zeroext true) #11
  %14 = call i32 @JsonbIteratorNext(ptr noundef nonnull %3, ptr noundef nonnull %4, i1 noundef zeroext true) #11
  %15 = call i32 @JsonbIteratorNext(ptr noundef nonnull %3, ptr noundef nonnull %4, i1 noundef zeroext true) #11
  br label %16

16:                                               ; preds = %10, %7
  call void @llvm.lifetime.end.p0(i64 32, ptr nonnull %4) #11
  call void @llvm.lifetime.end.p0(i64 8, ptr nonnull %3) #11
  ret i1 %or.cond.not
}